; Function Attrs: mustprogress nounwind uwtable
define dso_local noundef zeroext i1 @_ZNK5clang6Parser19isCXX11FinalKeywordEv(ptr nocapture noundef nonnull align 8 dereferenceable(2936) %0) local_unnamed_addr #0 align 2 {
switch.lookup:
  %1 = getelementptr inbounds nuw i8, ptr %0, i64 16
  %2 = tail call noundef i32 @_ZNK5clang6Parser20isCXX11VirtSpecifierERKNS_5TokenE(ptr noundef nonnull align 8 dereferenceable(2936) %0, ptr noundef nonnull align 8 dereferenceable(20) %1)
  %switch.cast = trunc nuw nsw i32 %2 to i17
  %switch.downshift = lshr i17 276, %switch.cast
  %switch.masked = trunc i17 %switch.downshift to i1
  ret i1 %switch.masked
}